; Function Attrs: mustprogress uwtable
define noundef i32 @_ZN3zmq8gather_t5xrecvEPNS_5msg_tE(ptr noundef nonnull align 8 dereferenceable(1880) %0, ptr noundef %1) unnamed_addr #0 align 2 {
  %3 = getelementptr inbounds nuw i8, ptr %0, i64 1832
  %4 = tail call noundef i32 @_ZN3zmq4fq_t8recvpipeEPNS_5msg_tEPPNS_6pipe_tE(ptr noundef nonnull align 8 dereferenceable(41) %3, ptr noundef %1, ptr noundef null)
  %5 = icmp eq i32 %4, 0
  br i1 %5, label %.lr.ph16, label %.critedge

.lr.ph16:                                         ; preds = %2, %.critedge13
  %6 = tail call noundef zeroext i8 @_ZNK3zmq5msg_t5flagsEv(ptr noundef nonnull align 8 dereferenceable(64) %1)
  %7 = and i8 %6, 1
  %.not = icmp eq i8 %7, 0
  br i1 %.not, label %.critedge, label %8

8:                                                ; preds = %.lr.ph16
  %9 = tail call noundef i32 @_ZN3zmq4fq_t8recvpipeEPNS_5msg_tEPPNS_6pipe_tE(ptr noundef nonnull align 8 dereferenceable(41) %3, ptr noundef nonnull %1, ptr noundef null)
  %10 = icmp eq i32 %9, 0
  br i1 %10, label %.lr.ph, label %.critedge

.lr.ph:                                           ; preds = %8, %15
  %11 = tail call noundef zeroext i8 @_ZNK3zmq5msg_t5flagsEv(ptr noundef nonnull align 8 dereferenceable(64) %1)
  %12 = and i8 %11, 1
  %.not12 = icmp eq i8 %12, 0
  %13 = tail call noundef i32 @_ZN3zmq4fq_t8recvpipeEPNS_5msg_tEPPNS_6pipe_tE(ptr noundef nonnull align 8 dereferenceable(41) %3, ptr noundef nonnull %1, ptr noundef null)
  %14 = icmp eq i32 %13, 0
  br i1 %.not12, label %.critedge13, label %15

15:                                               ; preds = %.lr.ph
  br i1 %14, label %.lr.ph, label %.critedge, !llvm.loop !63

.critedge13:                                      ; preds = %.lr.ph
  br i1 %14, label %.lr.ph16, label %.critedge, !llvm.loop !65

.critedge:                                        ; preds = %8, %.lr.ph16, %.critedge13, %15, %2
  %.0.lcssa = phi i32 [ %4, %2 ], [ %13, %15 ], [ %9, %8 ], [ %13, %.critedge13 ], [ 0, %.lr.ph16 ]
  ret i32 %.0.lcssa
}